; Function Attrs: mustprogress nounwind uwtable
define internal fastcc void @_ZNSt6vectorIN7Imf_3_412_GLOBAL__N_111TileProcessESaIS2_EED2Ev(ptr noundef nonnull readonly align 8 captures(none) dereferenceable(24) %0) unnamed_addr #5 align 2 personality ptr @__gxx_personality_v0 {
  %2 = load ptr, ptr %0, align 8, !tbaa !134
  %3 = getelementptr inbounds nuw i8, ptr %0, i64 8
  %4 = load ptr, ptr %3, align 8, !tbaa !136
  %.not4.i.i.i = icmp eq ptr %2, %4
  br i1 %.not4.i.i.i, label %_ZSt8_DestroyIPN7Imf_3_412_GLOBAL__N_111TileProcessES2_EvT_S4_RSaIT0_E.exit, label %.lr.ph.i.i.i

.lr.ph.i.i.i:                                     ; preds = %1, %_ZSt8_DestroyIN7Imf_3_412_GLOBAL__N_111TileProcessEEvPT_.exit.i.i.i
  %.05.i.i.i = phi ptr [ %15, %_ZSt8_DestroyIN7Imf_3_412_GLOBAL__N_111TileProcessEEvPT_.exit.i.i.i ], [ %2, %1 ]
  %5 = load i8, ptr %.05.i.i.i, align 8, !tbaa !126, !range !98, !noundef !99
  %6 = trunc nuw i8 %5 to i1
  br i1 %6, label %_ZSt8_DestroyIN7Imf_3_412_GLOBAL__N_111TileProcessEEvPT_.exit.i.i.i, label %7

7:                                                ; preds = %.lr.ph.i.i.i
  %8 = getelementptr inbounds nuw i8, ptr %.05.i.i.i, i64 72
  %9 = getelementptr inbounds nuw i8, ptr %.05.i.i.i, i64 96
  %10 = load ptr, ptr %9, align 8, !tbaa !176
  %11 = invoke i32 @exr_decoding_destroy(ptr noundef %10, ptr noundef nonnull %8)
          to label %_ZSt8_DestroyIN7Imf_3_412_GLOBAL__N_111TileProcessEEvPT_.exit.i.i.i unwind label %12

12:                                               ; preds = %7
  %13 = landingpad { ptr, i32 }
          catch ptr null
  %14 = extractvalue { ptr, i32 } %13, 0
  tail call void @__clang_call_terminate(ptr %14) #32
  unreachable

_ZSt8_DestroyIN7Imf_3_412_GLOBAL__N_111TileProcessEEvPT_.exit.i.i.i: ; preds = %7, %.lr.ph.i.i.i
  %15 = getelementptr inbounds nuw i8, ptr %.05.i.i.i, i64 584
  %.not.i.i.i = icmp eq ptr %15, %4
  br i1 %.not.i.i.i, label %_ZSt8_DestroyIPN7Imf_3_412_GLOBAL__N_111TileProcessES2_EvT_S4_RSaIT0_E.exitthread-pre-split, label %.lr.ph.i.i.i, !llvm.loop !217

_ZSt8_DestroyIPN7Imf_3_412_GLOBAL__N_111TileProcessES2_EvT_S4_RSaIT0_E.exitthread-pre-split: ; preds = %_ZSt8_DestroyIN7Imf_3_412_GLOBAL__N_111TileProcessEEvPT_.exit.i.i.i
  %.val.pr = load ptr, ptr %0, align 8, !tbaa !134
  br label %_ZSt8_DestroyIPN7Imf_3_412_GLOBAL__N_111TileProcessES2_EvT_S4_RSaIT0_E.exit

_ZSt8_DestroyIPN7Imf_3_412_GLOBAL__N_111TileProcessES2_EvT_S4_RSaIT0_E.exit: ; preds = %_ZSt8_DestroyIPN7Imf_3_412_GLOBAL__N_111TileProcessES2_EvT_S4_RSaIT0_E.exitthread-pre-split, %1
  %.val = phi ptr [ %.val.pr, %_ZSt8_DestroyIPN7Imf_3_412_GLOBAL__N_111TileProcessES2_EvT_S4_RSaIT0_E.exitthread-pre-split ], [ %2, %1 ]
  %.not.i.i = icmp eq ptr %.val, null
  br i1 %.not.i.i, label %_ZNSt12_Vector_baseIN7Imf_3_412_GLOBAL__N_111TileProcessESaIS2_EED2Ev.exit, label %16

16:                                               ; preds = %_ZSt8_DestroyIPN7Imf_3_412_GLOBAL__N_111TileProcessES2_EvT_S4_RSaIT0_E.exit
  %17 = getelementptr inbounds nuw i8, ptr %0, i64 16
  %.val1 = load ptr, ptr %17, align 8, !tbaa !137
  %18 = ptrtoint ptr %.val1 to i64
  %19 = ptrtoint ptr %.val to i64
  %20 = sub i64 %18, %19
  tail call void @_ZdlPvm(ptr noundef nonnull %.val, i64 noundef %20) #29
  br label %_ZNSt12_Vector_baseIN7Imf_3_412_GLOBAL__N_111TileProcessESaIS2_EED2Ev.exit

_ZNSt12_Vector_baseIN7Imf_3_412_GLOBAL__N_111TileProcessESaIS2_EED2Ev.exit: ; preds = %_ZSt8_DestroyIPN7Imf_3_412_GLOBAL__N_111TileProcessES2_EvT_S4_RSaIT0_E.exit, %16
  ret void
}